; ModuleID = '43/91.c'
source_filename = "43/91.c"
target datalayout = "e-m:e-p270:32:32-p271:32:32-p272:64:64-i64:64-f80:128-n8:16:32:64-S128"
target triple = "x86_64-pc-linux-gnu"

@.str = private unnamed_addr constant [3 x i8] c"%d\00", align 1
@.str.1 = private unnamed_addr constant [7 x i8] c"%d %d\0A\00", align 1

; Function Attrs: noinline nounwind uwtable
define dso_local i32 @f(i32 %0) #0 {
  %2 = alloca i32, align 4
  %3 = alloca i32, align 4
  %4 = alloca i32, align 4
  store i32 %0, i32* %2, align 4
  store i32 0, i32* %3, align 4
  store i32 2, i32* %4, align 4
  br label %5

5:                                                ; preds = %15, %1
  %6 = load i32, i32* %4, align 4
  %7 = load i32, i32* %2, align 4
  %8 = icmp slt i32 %6, %7
  br i1 %8, label %9, label %18

9:                                                ; preds = %5
  %10 = load i32, i32* %2, align 4
  %11 = load i32, i32* %4, align 4
  %12 = srem i32 %10, %11
  %13 = icmp eq i32 %12, 0
  br i1 %13, label %14, label %15

14:                                               ; preds = %9
  br label %18

15:                                               ; preds = %9
  %16 = load i32, i32* %4, align 4
  %17 = add nsw i32 %16, 1
  store i32 %17, i32* %4, align 4
  br label %5

18:                                               ; preds = %14, %5
  %19 = load i32, i32* %4, align 4
  %20 = load i32, i32* %2, align 4
  %21 = icmp eq i32 %19, %20
  br i1 %21, label %22, label %23

22:                                               ; preds = %18
  store i32 1, i32* %3, align 4
  br label %23

23:                                               ; preds = %22, %18
  %24 = load i32, i32* %3, align 4
  ret i32 %24
}

; Function Attrs: noinline nounwind uwtable
define dso_local i32 @main() #0 {
  %1 = alloca i32, align 4
  %2 = alloca i32, align 4
  %3 = alloca i32, align 4
  %4 = alloca i32, align 4
  store i32 0, i32* %1, align 4
  %5 = call i32 (i8*, ...) @__isoc99_scanf(i8* getelementptr inbounds ([3 x i8], [3 x i8]* @.str, i64 0, i64 0), i32* %2)
  store i32 3, i32* %4, align 4
  br label %6

6:                                                ; preds = %27, %0
  %7 = load i32, i32* %4, align 4
  %8 = load i32, i32* %2, align 4
  %9 = sdiv i32 %8, 2
  %10 = icmp sle i32 %7, %9
  br i1 %10, label %11, label %30

11:                                               ; preds = %6
  %12 = load i32, i32* %2, align 4
  %13 = load i32, i32* %4, align 4
  %14 = sub nsw i32 %12, %13
  store i32 %14, i32* %3, align 4
  %15 = load i32, i32* %4, align 4
  %16 = call i32 @f(i32 %15)
  %17 = icmp eq i32 %16, 1
  br i1 %17, label %18, label %26

18:                                               ; preds = %11
  %19 = load i32, i32* %3, align 4
  %20 = call i32 @f(i32 %19)
  %21 = icmp eq i32 %20, 1
  br i1 %21, label %22, label %26

22:                                               ; preds = %18
  %23 = load i32, i32* %4, align 4
  %24 = load i32, i32* %3, align 4
  %25 = call i32 (i8*, ...) @printf(i8* getelementptr inbounds ([7 x i8], [7 x i8]* @.str.1, i64 0, i64 0), i32 %23, i32 %24)
  br label %26

26:                                               ; preds = %22, %18, %11
  br label %27

27:                                               ; preds = %26
  %28 = load i32, i32* %4, align 4
  %29 = add nsw i32 %28, 1
  store i32 %29, i32* %4, align 4
  br label %6

30:                                               ; preds = %6
  %31 = call i32 @getchar()
  %32 = call i32 @getchar()
  ret i32 0
}

declare dso_local i32 @__isoc99_scanf(i8*, ...) #1

declare dso_local i32 @printf(i8*, ...) #1

declare dso_local i32 @getchar() #1


!llvm.module.flags = !{!0}
!llvm.ident = !{!1}

!0 = !{i32 1, !"wchar_size", i32 4}
!1 = !{!"clang version 10.0.0-4ubuntu1 "}
